ccopy_reg
_reconstructor
p1
(csrc.backend.LDAAnalyzer
LDAAnalyzer
p2
c__builtin__
object
p3
NtRp4
(dp5
S'params'
p6
(dp7
S'ldadir'
p8
S'/Users/cradreed/Research/TMBrowse/current/lib/lda-c-dist'
p9
sS'vocabfile'
p10
S'/Users/cradreed/Research/TMBrowse/trunk/src/../tmaout/tmptgsrBe_formdata/corpus/vocab.txt'
p11
sS'var_max_iter'
p12
I20
sS'titlesfile'
p13
S'/Users/cradreed/Research/TMBrowse/trunk/src/../tmaout/tmptgsrBe_formdata/corpus/titles.txt'
p14
sS'corpusfile'
p15
S'/Users/cradreed/Research/TMBrowse/trunk/src/../tmaout/tmptgsrBe_formdata/corpus/corpus.dat'
p16
sS'infname'
p17
S''
sS'alpha_tech'
p18
S'estimate'
p19
sS'alphaval'
p20
F0.20000000000000001
sS'init'
p21
Vseeded
p22
sS'alg'
p23
S'lda'
p24
sS'settingsfile'
p25
S'settings.txt'
p26
sS'alpha'
p27
Vestimate
p28
sS'ntopics'
p29
I10
sS'var_convergence'
p30
F9.9999999999999995e-07
sS'wordct'
p31
I53452
sS'type'
p32
S'est'
p33
sS'em_max_iter'
p34
I100
sS'em_convergence'
p35
F0.0001
sS'outdir'
p36
V/Users/cradreed/Research/TMBrowse/trunk/src/../tmaout/tmptgsrBe_formdata/lda
p37
ssb.