(dp1
I0
(lp2
(lp3
S'inaud'
p4
aI4
aa(lp5
S'matrix'
p6
aI465
aa(lp7
S'three'
p8
aI257
aa(lp9
S'vector'
p10
aI356
aa(lp11
S'element'
p12
aI468
aa(lp13
S'octav'
p14
aI442
aa(lp15
S'function'
p16
aI93
aa(lp17
S'type'
p18
aI260
aasI1
(lp19
(lp20
S'model'
p21
aI317
aa(lp22
S'variabl'
p23
aI41
aa(lp24
S'time'
p25
aI147
aa(lp26
S'probabl'
p27
aI120
aa(lp28
S'observ'
p29
aI108
aa(lp30
S'structur'
p31
aI280
aa(lp32
S'distribut'
p33
aI130
aa(lp34
S'state'
p35
aI372
aasI2
(lp36
(lp37
g16
aI93
aa(lp38
S'expect'
p39
aI36
aa(lp40
S'util'
p41
aI16
aa(lp42
S'theta'
p43
aI18
aa(lp44
S'likelihood'
p45
aI62
aa(lp46
g23
aI41
aa(lp47
S'paramet'
p48
aI2
aa(lp49
S'data'
p50
aI136
aasI3
(lp51
(lp52
g27
aI120
aa(lp53
S'factor'
p54
aI338
aa(lp55
g33
aI130
aa(lp56
g23
aI41
aa(lp57
S'independ'
p58
aI246
aa(lp59
S'network'
p60
aI42
aa(lp61
S'graph'
p62
aI676
aa(lp63
S'student'
p64
aI460
aasI4
(lp65
(lp66
S'set'
p67
aI30
aa(lp68
S'train'
p69
aI613
aa(lp70
S'fit'
p71
aI163
aa(lp72
g50
aI136
aa(lp73
S'error'
p74
aI1205
aa(lp75
S'test'
p76
aI1082
aa(lp77
g48
aI2
aa(lp78
g4
aI4
aasI5
(lp79
(lp80
S'problem'
p81
aI106
aa(lp82
S'algorithm'
p83
aI143
aa(lp84
S'assign'
p85
aI75
aa(lp86
S'bit'
p87
aI20
aa(lp88
S'slave'
p89
aI1255
aa(lp90
S'map'
p91
aI801
aa(lp92
S'converg'
p93
aI123
aa(lp94
S'infer'
p95
aI623
aasI6
(lp96
(lp97
S'score'
p98
aI635
aa(lp99
g60
aI42
aa(lp100
g48
aI2
aa(lp101
g50
aI136
aa(lp102
g45
aI62
aa(lp103
S'edg'
p104
aI182
aa(lp105
S'prior'
p106
aI548
aa(lp107
S'learn'
p108
aI222
aasI7
(lp109
(lp110
S'sampl'
p111
aI508
aa(lp112
g33
aI130
aa(lp113
g27
aI120
aa(lp114
S'chain'
p115
aI0
aa(lp116
S'featur'
p117
aI1125
aa(lp118
g21
aI317
aa(lp119
g35
aI372
aa(lp120
g4
aI4
aasI8
(lp121
(lp122
g54
aI338
aa(lp123
S'cluster'
p124
aI774
aa(lp125
g23
aI41
aa(lp126
S'messag'
p127
aI761
aa(lp128
S'elimin'
p129
aI749
aa(lp130
S'cliqu'
p131
aI865
aa(lp132
g62
aI676
aa(lp133
S'tree'
p134
aI279
aasI9
(lp135
(lp136
g81
aI106
aa(lp137
g83
aI143
aa(lp138
g85
aI75
aa(lp139
g87
aI20
aa(lp140
g89
aI1255
aa(lp141
g91
aI801
aa(lp142
g93
aI123
aa(lp143
g95
aI623
aas.