(dp1
I0
(lp2
(lp3
S'model'
p4
aI160
aa(lp5
S'featur'
p6
aI568
aa(lp7
S'pixel'
p8
aI490
aa(lp9
S'imag'
p10
aI413
aa(lp11
S'paramet'
p12
aI2
aa(lp13
S'probabl'
p14
aI66
aa(lp15
S'distribut'
p16
aI71
aa(lp17
S'function'
p18
aI55
aasI1
(lp19
(lp20
g12
aI2
aa(lp21
S'theta'
p22
aI10
aa(lp23
S'likelihood'
p24
aI40
aa(lp25
S'data'
p26
aI74
aa(lp27
g18
aI55
aa(lp28
S'expect'
p29
aI21
aa(lp30
S'instanc'
p31
aI42
aa(lp32
g14
aI66
aasI2
(lp33
(lp34
S'factor'
p35
aI176
aa(lp36
S'cluster'
p37
aI408
aa(lp38
S'messag'
p39
aI400
aa(lp40
S'elimin'
p41
aI394
aa(lp42
S'cliqu'
p43
aI452
aa(lp44
S'graph'
p45
aI355
aa(lp46
S'tree'
p47
aI139
aa(lp48
S'phi'
p49
aI390
aasI3
(lp50
(lp51
S'bit'
p52
aI12
aa(lp53
S'algorithm'
p54
aI77
aa(lp55
g39
aI400
aa(lp56
S'util'
p57
aI9
aa(lp58
S'converg'
p59
aI68
aa(lp60
S'code'
p61
aI163
aa(lp62
S'peopl'
p63
aI152
aa(lp64
S'infer'
p65
aI331
aasI4
(lp66
(lp67
S'three'
p68
aI131
aa(lp69
S'matrix'
p70
aI243
aa(lp71
S'slave'
p72
aI637
aa(lp73
S'vector'
p74
aI184
aa(lp75
g18
aI55
aa(lp76
S'element'
p77
aI245
aa(lp78
S'assign'
p79
aI47
aa(lp80
S'octav'
p81
aI229
aasI5
(lp82
(lp83
S'score'
p84
aI338
aa(lp85
g26
aI74
aa(lp86
S'fit'
p87
aI89
aa(lp88
S'network'
p89
aI25
aa(lp90
S'learn'
p91
aI118
aa(lp92
S'train'
p93
aI325
aa(lp94
g12
aI2
aa(lp95
S'error'
p96
aI612
aasI6
(lp97
(lp98
g16
aI71
aa(lp99
S'independ'
p100
aI127
aa(lp101
g14
aI66
aa(lp102
g35
aI176
aa(lp103
S'student'
p104
aI239
aa(lp105
g45
aI355
aa(lp106
g89
aI25
aa(lp107
S'depend'
p108
aI3
aasI7
(lp109
(lp110
g4
aI160
aa(lp111
S'time'
p112
aI79
aa(lp113
g14
aI66
aa(lp114
S'observ'
p115
aI61
aa(lp116
g89
aI25
aa(lp117
S'state'
p118
aI192
aa(lp119
S'class'
p120
aI242
aa(lp121
S'robot'
p122
aI591
aasI8
(lp123
(lp124
S'sampl'
p125
aI268
aa(lp126
g16
aI71
aa(lp127
g14
aI66
aa(lp128
S'chain'
p129
aI0
aa(lp130
g118
aI192
aa(lp131
S'prime'
p132
aI358
aa(lp133
S'markov'
p134
aI395
aa(lp135
S'equal'
p136
aI31
aasI9
(lp137
(lp138
g4
aI160
aa(lp139
g112
aI79
aa(lp140
g14
aI66
aa(lp141
g115
aI61
aa(lp142
g89
aI25
aa(lp143
g118
aI192
aa(lp144
g120
aI242
aa(lp145
g122
aI591
aas.