(dp1
I0
(lp2
(lp3
S'paramet'
p4
aI2
aa(lp5
S'theta'
p6
aI10
aa(lp7
S'likelihood'
p8
aI40
aa(lp9
S'data'
p10
aI74
aa(lp11
S'function'
p12
aI55
aa(lp13
S'distribut'
p14
aI71
aa(lp15
S'instanc'
p16
aI42
aa(lp17
S'probabl'
p18
aI66
aasI1
(lp19
(lp20
S'independ'
p21
aI127
aa(lp22
g14
aI71
aa(lp23
g18
aI66
aa(lp24
S'graph'
p25
aI355
aa(lp26
S'network'
p27
aI25
aa(lp28
S'factor'
p29
aI176
aa(lp30
S'condit'
p31
aI113
aa(lp32
S'depend'
p33
aI3
aasI2
(lp34
(lp35
S'matrix'
p36
aI243
aa(lp37
S'three'
p38
aI131
aa(lp39
S'vector'
p40
aI184
aa(lp41
S'element'
p42
aI245
aa(lp43
S'octav'
p44
aI229
aa(lp45
g12
aI55
aa(lp46
S'type'
p47
aI133
aa(lp48
S'equal'
p49
aI31
aasI3
(lp50
(lp51
S'score'
p52
aI338
aa(lp53
g27
aI25
aa(lp54
S'problem'
p55
aI60
aa(lp56
S'algorithm'
p57
aI77
aa(lp58
S'edg'
p59
aI95
aa(lp60
S'learn'
p61
aI118
aa(lp62
S'term'
p63
aI262
aa(lp64
S'structur'
p65
aI140
aasI4
(lp66
(lp67
g29
aI176
aa(lp68
S'elimin'
p69
aI394
aa(lp70
S'phi'
p71
aI390
aa(lp72
S'product'
p73
aI106
aa(lp74
S'sum'
p75
aI27
aa(lp76
g25
aI355
aa(lp77
S'scope'
p78
aI402
aa(lp79
g18
aI66
aasI5
(lp80
(lp81
S'util'
p82
aI9
aa(lp83
g18
aI66
aa(lp84
S'student'
p85
aI239
aa(lp86
S'decis'
p87
aI4
aa(lp88
S'expect'
p89
aI21
aa(lp90
S'sampl'
p91
aI268
aa(lp92
S'observ'
p93
aI61
aa(lp94
S'agent'
p95
aI651
aasI6
(lp96
(lp97
S'time'
p98
aI79
aa(lp99
S'model'
p100
aI160
aa(lp101
g18
aI66
aa(lp102
S'state'
p103
aI192
aa(lp104
g14
aI71
aa(lp105
S'chain'
p106
aI0
aa(lp107
g91
aI268
aa(lp108
S'robot'
p109
aI591
aasI7
(lp110
(lp111
S'error'
p112
aI612
aa(lp113
S'fit'
p114
aI89
aa(lp115
S'train'
p116
aI325
aa(lp117
g10
aI74
aa(lp118
S'test'
p119
aI541
aa(lp120
g4
aI2
aa(lp121
S'bit'
p122
aI12
aa(lp123
S'hypothesi'
p124
aI596
aasI8
(lp125
(lp126
g100
aI160
aa(lp127
S'featur'
p128
aI568
aa(lp129
S'class'
p130
aI242
aa(lp131
g18
aI66
aa(lp132
S'pixel'
p133
aI490
aa(lp134
S'imag'
p135
aI413
aa(lp136
g14
aI71
aa(lp137
g4
aI2
aasI9
(lp138
(lp139
S'cluster'
p140
aI408
aa(lp141
S'messag'
p142
aI400
aa(lp143
S'cliqu'
p144
aI452
aa(lp145
S'pass'
p146
aI393
aa(lp147
S'tree'
p148
aI139
aa(lp149
S'belief'
p150
aI297
aa(lp151
S'converg'
p152
aI68
aa(lp153
g25
aI355
aas.